; Function Attrs: mustprogress uwtable
define void @_ZN3net30QuicMultipathSentPacketManager24RetransmitUnackedPacketsENS_16TransmissionTypeE(ptr noundef nonnull readonly align 8 captures(none) dereferenceable(40) %0, i8 noundef signext %1) unnamed_addr #0 align 2 {
  %3 = tail call noundef ptr @_ZNK3net30QuicMultipathSentPacketManager38MaybeGetSentPacketManagerForActivePathEh(ptr noundef nonnull align 8 dereferenceable(40) %0, i8 noundef zeroext 0)
  %4 = icmp eq ptr %3, null
  br i1 %4, label %5, label %6

5:                                                ; preds = %2
  tail call void @_ZN3net30QuicMultipathSentPacketManager24OnUnrecoverablePathErrorEh(ptr noundef nonnull align 8 dereferenceable(40) %0, i8 noundef zeroext 0)
  br label %10

6:                                                ; preds = %2
  %7 = load ptr, ptr %3, align 8, !tbaa !3
  %8 = getelementptr inbounds nuw i8, ptr %7, i64 64
  %9 = load ptr, ptr %8, align 8
  tail call void %9(ptr noundef nonnull align 8 dereferenceable(8) %3, i8 noundef signext %1)
  br label %10

10:                                               ; preds = %6, %5
  ret void
}